target datalayout = "e-m:e-p270:32:32-p271:32:32-p272:64:64-i64:64-i128:128-f80:128-n8:16:32:64-S128"
target triple = "x86_64-unknown-linux-gnu"

%class.b2Shape = type { ptr, i32, float }
%class.b2CircleShape = type { %class.b2Shape, %struct.b2Vec2 }
%struct.b2Vec2 = type { float, float }
%struct.b2Transform = type { %struct.b2Vec2, %struct.b2Rot }
%struct.b2Rot = type { float, float }
%struct.b2AABB = type { %struct.b2Vec2, %struct.b2Vec2 }

; Function Attrs: mustprogress nounwind uwtable
define linkonce_odr hidden void @_ZN6b2Vec2C2Eff(ptr noundef nonnull align 4 dereferenceable(8) %this, float noundef %xIn, float noundef %yIn) unnamed_addr #2 comdat align 2 {
entry:
  %this.addr = alloca ptr, align 8
  %xIn.addr = alloca float, align 4
  %yIn.addr = alloca float, align 4
  store ptr %this, ptr %this.addr, align 8
  store float %xIn, ptr %xIn.addr, align 4
  store float %yIn, ptr %yIn.addr, align 4
  %this1 = load ptr, ptr %this.addr, align 8
  %x = getelementptr inbounds %struct.b2Vec2, ptr %this1, i32 0, i32 0
  %0 = load float, ptr %xIn.addr, align 4
  store float %0, ptr %x, align 4
  %y = getelementptr inbounds %struct.b2Vec2, ptr %this1, i32 0, i32 1
  %1 = load float, ptr %yIn.addr, align 4
  store float %1, ptr %y, align 4
  ret void
}

; Function Attrs: mustprogress nounwind uwtable
define linkonce_odr hidden void @_ZN6b2Vec23SetEff(ptr noundef nonnull align 4 dereferenceable(8) %this, float noundef %x_, float noundef %y_) #2 comdat align 2 {
entry:
  %this.addr = alloca ptr, align 8
  %x_.addr = alloca float, align 4
  %y_.addr = alloca float, align 4
  store ptr %this, ptr %this.addr, align 8
  store float %x_, ptr %x_.addr, align 4
  store float %y_, ptr %y_.addr, align 4
  %this1 = load ptr, ptr %this.addr, align 8
  %0 = load float, ptr %x_.addr, align 4
  %x = getelementptr inbounds %struct.b2Vec2, ptr %this1, i32 0, i32 0
  store float %0, ptr %x, align 4
  %1 = load float, ptr %y_.addr, align 4
  %y = getelementptr inbounds %struct.b2Vec2, ptr %this1, i32 0, i32 1
  store float %1, ptr %y, align 4
  ret void
}

; Function Attrs: mustprogress uwtable
define linkonce_odr hidden <2 x float> @_ZplRK6b2Vec2S1_(ptr noundef nonnull align 4 dereferenceable(8) %a, ptr noundef nonnull align 4 dereferenceable(8) %b) #3 comdat {
entry:
  %retval = alloca %struct.b2Vec2, align 4
  %a.addr = alloca ptr, align 8
  %b.addr = alloca ptr, align 8
  store ptr %a, ptr %a.addr, align 8
  store ptr %b, ptr %b.addr, align 8
  %0 = load ptr, ptr %a.addr, align 8
  %x = getelementptr inbounds %struct.b2Vec2, ptr %0, i32 0, i32 0
  %1 = load float, ptr %x, align 4
  %2 = load ptr, ptr %b.addr, align 8
  %x1 = getelementptr inbounds %struct.b2Vec2, ptr %2, i32 0, i32 0
  %3 = load float, ptr %x1, align 4
  %add = fadd float %1, %3
  %4 = load ptr, ptr %a.addr, align 8
  %y = getelementptr inbounds %struct.b2Vec2, ptr %4, i32 0, i32 1
  %5 = load float, ptr %y, align 4
  %6 = load ptr, ptr %b.addr, align 8
  %y2 = getelementptr inbounds %struct.b2Vec2, ptr %6, i32 0, i32 1
  %7 = load float, ptr %y2, align 4
  %add3 = fadd float %5, %7
  call void @_ZN6b2Vec2C2Eff(ptr noundef nonnull align 4 dereferenceable(8) %retval, float noundef %add, float noundef %add3)
  %8 = load <2 x float>, ptr %retval, align 4
  ret <2 x float> %8
}

; Function Attrs: mustprogress uwtable
define linkonce_odr hidden <2 x float> @_Z5b2MulRK5b2RotRK6b2Vec2(ptr noundef nonnull align 4 dereferenceable(8) %q, ptr noundef nonnull align 4 dereferenceable(8) %v) #3 comdat {
entry:
  %retval = alloca %struct.b2Vec2, align 4
  %q.addr = alloca ptr, align 8
  %v.addr = alloca ptr, align 8
  store ptr %q, ptr %q.addr, align 8
  store ptr %v, ptr %v.addr, align 8
  %0 = load ptr, ptr %q.addr, align 8
  %c = getelementptr inbounds %struct.b2Rot, ptr %0, i32 0, i32 1
  %1 = load float, ptr %c, align 4
  %2 = load ptr, ptr %v.addr, align 8
  %x = getelementptr inbounds %struct.b2Vec2, ptr %2, i32 0, i32 0
  %3 = load float, ptr %x, align 4
  %4 = load ptr, ptr %q.addr, align 8
  %s = getelementptr inbounds %struct.b2Rot, ptr %4, i32 0, i32 0
  %5 = load float, ptr %s, align 4
  %6 = load ptr, ptr %v.addr, align 8
  %y = getelementptr inbounds %struct.b2Vec2, ptr %6, i32 0, i32 1
  %7 = load float, ptr %y, align 4
  %mul1 = fmul float %5, %7
  %neg = fneg float %mul1
  %8 = call float @llvm.fmuladd.f32(float %1, float %3, float %neg)
  %9 = load ptr, ptr %q.addr, align 8
  %s2 = getelementptr inbounds %struct.b2Rot, ptr %9, i32 0, i32 0
  %10 = load float, ptr %s2, align 4
  %11 = load ptr, ptr %v.addr, align 8
  %x3 = getelementptr inbounds %struct.b2Vec2, ptr %11, i32 0, i32 0
  %12 = load float, ptr %x3, align 4
  %13 = load ptr, ptr %q.addr, align 8
  %c4 = getelementptr inbounds %struct.b2Rot, ptr %13, i32 0, i32 1
  %14 = load float, ptr %c4, align 4
  %15 = load ptr, ptr %v.addr, align 8
  %y5 = getelementptr inbounds %struct.b2Vec2, ptr %15, i32 0, i32 1
  %16 = load float, ptr %y5, align 4
  %mul6 = fmul float %14, %16
  %17 = call float @llvm.fmuladd.f32(float %10, float %12, float %mul6)
  call void @_ZN6b2Vec2C2Eff(ptr noundef nonnull align 4 dereferenceable(8) %retval, float noundef %8, float noundef %17)
  %18 = load <2 x float>, ptr %retval, align 4
  ret <2 x float> %18
}

; Function Attrs: mustprogress uwtable
define void @_ZNK13b2CircleShape11ComputeAABBEP6b2AABBRK11b2Transformi(ptr noundef nonnull align 8 dereferenceable(24) %this, ptr noundef %aabb, ptr noundef nonnull align 4 dereferenceable(16) %transform, i32 noundef %childIndex) unnamed_addr #3 align 2 {
entry:
  %this.addr = alloca ptr, align 8
  %aabb.addr = alloca ptr, align 8
  %transform.addr = alloca ptr, align 8
  %childIndex.addr = alloca i32, align 4
  %p = alloca %struct.b2Vec2, align 4
  %ref.tmp = alloca %struct.b2Vec2, align 4
  store ptr %this, ptr %this.addr, align 8
  store ptr %aabb, ptr %aabb.addr, align 8
  store ptr %transform, ptr %transform.addr, align 8
  store i32 %childIndex, ptr %childIndex.addr, align 4
  %this1 = load ptr, ptr %this.addr, align 8
  %0 = load ptr, ptr %transform.addr, align 8
  %p2 = getelementptr inbounds %struct.b2Transform, ptr %0, i32 0, i32 0
  %1 = load ptr, ptr %transform.addr, align 8
  %q = getelementptr inbounds %struct.b2Transform, ptr %1, i32 0, i32 1
  %m_p = getelementptr inbounds %class.b2CircleShape, ptr %this1, i32 0, i32 1
  %call = call <2 x float> @_Z5b2MulRK5b2RotRK6b2Vec2(ptr noundef nonnull align 4 dereferenceable(8) %q, ptr noundef nonnull align 4 dereferenceable(8) %m_p)
  store <2 x float> %call, ptr %ref.tmp, align 4
  %call3 = call <2 x float> @_ZplRK6b2Vec2S1_(ptr noundef nonnull align 4 dereferenceable(8) %p2, ptr noundef nonnull align 4 dereferenceable(8) %ref.tmp)
  store <2 x float> %call3, ptr %p, align 4
  %2 = load ptr, ptr %aabb.addr, align 8
  %lowerBound = getelementptr inbounds %struct.b2AABB, ptr %2, i32 0, i32 0
  %x = getelementptr inbounds %struct.b2Vec2, ptr %p, i32 0, i32 0
  %3 = load float, ptr %x, align 4
  %m_radius = getelementptr inbounds %class.b2Shape, ptr %this1, i32 0, i32 2
  %4 = load float, ptr %m_radius, align 4
  %sub = fsub float %3, %4
  %y = getelementptr inbounds %struct.b2Vec2, ptr %p, i32 0, i32 1
  %5 = load float, ptr %y, align 4
  %m_radius4 = getelementptr inbounds %class.b2Shape, ptr %this1, i32 0, i32 2
  %6 = load float, ptr %m_radius4, align 4
  %sub5 = fsub float %5, %6
  call void @_ZN6b2Vec23SetEff(ptr noundef nonnull align 4 dereferenceable(8) %lowerBound, float noundef %sub, float noundef %sub5)
  %7 = load ptr, ptr %aabb.addr, align 8
  %upperBound = getelementptr inbounds %struct.b2AABB, ptr %7, i32 0, i32 1
  %x6 = getelementptr inbounds %struct.b2Vec2, ptr %p, i32 0, i32 0
  %8 = load float, ptr %x6, align 4
  %m_radius7 = getelementptr inbounds %class.b2Shape, ptr %this1, i32 0, i32 2
  %9 = load float, ptr %m_radius7, align 4
  %add = fadd float %8, %9
  %y8 = getelementptr inbounds %struct.b2Vec2, ptr %p, i32 0, i32 1
  %10 = load float, ptr %y8, align 4
  %m_radius9 = getelementptr inbounds %class.b2Shape, ptr %this1, i32 0, i32 2
  %11 = load float, ptr %m_radius9, align 4
  %add10 = fadd float %10, %11
  call void @_ZN6b2Vec23SetEff(ptr noundef nonnull align 4 dereferenceable(8) %upperBound, float noundef %add, float noundef %add10)
  ret void
}