; Function Attrs: mustprogress nofree norecurse nosync nounwind willreturn memory(argmem: readwrite) uwtable
define void @_ZNK13b2CircleShape11ComputeAABBEP6b2AABBRK11b2Transformi(ptr nocapture noundef nonnull readonly align 8 dereferenceable(24) %this, ptr nocapture noundef writeonly %aabb, ptr nocapture noundef nonnull readonly align 4 dereferenceable(16) %transform, i32 %childIndex) unnamed_addr #7 align 2 {
entry:
  %q = getelementptr inbounds i8, ptr %transform, i64 8
  %m_p = getelementptr inbounds i8, ptr %this, i64 16
  %0 = load float, ptr %m_p, align 8
  %y.i = getelementptr inbounds i8, ptr %this, i64 20
  %1 = load float, ptr %y.i, align 4
  %2 = load <4 x float>, ptr %this, align 8
  %3 = load <2 x float>, ptr %q, align 4
  %4 = shufflevector <2 x float> %3, <2 x float> poison, <2 x i32> <i32 1, i32 0>
  %5 = extractelement <2 x float> %3, i64 0
  %6 = fneg float %5
  %7 = insertelement <2 x float> poison, float %1, i64 0
  %8 = shufflevector <2 x float> %7, <2 x float> poison, <2 x i32> zeroinitializer
  %9 = insertelement <2 x float> %3, float %6, i64 0
  %10 = fmul <2 x float> %8, %9
  %11 = insertelement <2 x float> poison, float %0, i64 0
  %12 = shufflevector <2 x float> %11, <2 x float> poison, <2 x i32> zeroinitializer
  %13 = tail call <2 x float> @llvm.fmuladd.v2f32(<2 x float> %4, <2 x float> %12, <2 x float> %10)
  %14 = load <2 x float>, ptr %transform, align 4
  %15 = fadd <2 x float> %14, %13
  %16 = shufflevector <4 x float> %2, <4 x float> poison, <2 x i32> <i32 3, i32 3>
  %17 = fsub <2 x float> %15, %16
  store <2 x float> %17, ptr %aabb, align 4
  %upperBound = getelementptr inbounds i8, ptr %aabb, i64 8
  %18 = load <4 x float>, ptr %this, align 8
  %19 = shufflevector <4 x float> %18, <4 x float> poison, <2 x i32> <i32 3, i32 3>
  %20 = fadd <2 x float> %15, %19
  store <2 x float> %20, ptr %upperBound, align 4
  ret void
}